; ModuleID = 'source-C-CXX/0/527.cpp'
source_filename = "source-C-CXX/0/527.cpp"
target datalayout = "e-m:e-p270:32:32-p271:32:32-p272:64:64-i64:64-f80:128-n8:16:32:64-S128"
target triple = "x86_64-pc-linux-gnu"

%"class.std::ios_base::Init" = type { i8 }
%"class.std::basic_istream" = type { i32 (...)**, i64, %"class.std::basic_ios" }
%"class.std::basic_ios" = type { %"class.std::ios_base", %"class.std::basic_ostream"*, i8, i8, %"class.std::basic_streambuf"*, %"class.std::ctype"*, %"class.std::num_put"*, %"class.std::num_get"* }
%"class.std::ios_base" = type { i32 (...)**, i64, i64, i32, i32, i32, %"struct.std::ios_base::_Callback_list"*, %"struct.std::ios_base::_Words", [8 x %"struct.std::ios_base::_Words"], i32, %"struct.std::ios_base::_Words"*, %"class.std::locale" }
%"struct.std::ios_base::_Callback_list" = type { %"struct.std::ios_base::_Callback_list"*, void (i32, %"class.std::ios_base"*, i32)*, i32, i32 }
%"struct.std::ios_base::_Words" = type { i8*, i64 }
%"class.std::locale" = type { %"class.std::locale::_Impl"* }
%"class.std::locale::_Impl" = type { i32, %"class.std::locale::facet"**, i64, %"class.std::locale::facet"**, i8** }
%"class.std::locale::facet" = type <{ i32 (...)**, i32, [4 x i8] }>
%"class.std::basic_ostream" = type { i32 (...)**, %"class.std::basic_ios" }
%"class.std::basic_streambuf" = type { i32 (...)**, i8*, i8*, i8*, i8*, i8*, i8*, %"class.std::locale" }
%"class.std::ctype" = type <{ %"class.std::locale::facet.base", [4 x i8], %struct.__locale_struct*, i8, [7 x i8], i32*, i32*, i16*, i8, [256 x i8], [256 x i8], i8, [6 x i8] }>
%"class.std::locale::facet.base" = type <{ i32 (...)**, i32 }>
%struct.__locale_struct = type { [13 x %struct.__locale_data*], i16*, i32*, i32*, [13 x i8*] }
%struct.__locale_data = type opaque
%"class.std::num_put" = type { %"class.std::locale::facet.base", [4 x i8] }
%"class.std::num_get" = type { %"class.std::locale::facet.base", [4 x i8] }

@_ZStL8__ioinit = internal global %"class.std::ios_base::Init" zeroinitializer, align 1
@__dso_handle = external hidden global i8
@_ZSt3cin = external global %"class.std::basic_istream", align 8
@_ZSt4cout = external global %"class.std::basic_ostream", align 8
@llvm.global_ctors = appending global [1 x { i32, void ()*, i8* }] [{ i32, void ()*, i8* } { i32 65535, void ()* @_GLOBAL__sub_I_527.cpp, i8* null }]

declare void @_ZNSt8ios_base4InitC1Ev(%"class.std::ios_base::Init"* nonnull align 1 dereferenceable(1)) unnamed_addr #0

; Function Attrs: nounwind
declare void @_ZNSt8ios_base4InitD1Ev(%"class.std::ios_base::Init"* nonnull align 1 dereferenceable(1)) unnamed_addr #1

; Function Attrs: nofree nounwind
declare i32 @__cxa_atexit(void (i8*)*, i8*, i8*) local_unnamed_addr #2

; Function Attrs: mustprogress nofree nounwind sspstrong uwtable
define dso_local i32 @_Z1fii(i32 %0, i32 %1) local_unnamed_addr #3 {
  %3 = sitofp i32 %0 to double
  %4 = tail call double @sqrt(double %3) #9
  %5 = tail call double @llvm.fabs.f64(double %4)
  %6 = fptosi double %5 to i32
  %7 = icmp slt i32 %6, %1
  br i1 %7, label %29, label %8

8:                                                ; preds = %2
  %9 = tail call double @sqrt(double %3) #9
  %10 = tail call double @llvm.fabs.f64(double %9)
  %11 = fptosi double %10 to i32
  %12 = icmp slt i32 %11, %1
  br i1 %12, label %29, label %13

13:                                               ; preds = %8, %22
  %14 = phi i32 [ %24, %22 ], [ %1, %8 ]
  %15 = phi i32 [ %23, %22 ], [ 1, %8 ]
  %16 = srem i32 %0, %14
  %17 = sdiv i32 %0, %14
  %18 = icmp eq i32 %16, 0
  br i1 %18, label %19, label %22

19:                                               ; preds = %13
  %20 = tail call i32 @_Z1fii(i32 %17, i32 %14)
  %21 = add nsw i32 %20, %15
  br label %22

22:                                               ; preds = %13, %19
  %23 = phi i32 [ %21, %19 ], [ %15, %13 ]
  %24 = add nsw i32 %14, 1
  %25 = tail call double @sqrt(double %3) #9
  %26 = tail call double @llvm.fabs.f64(double %25)
  %27 = fptosi double %26 to i32
  %28 = icmp slt i32 %14, %27
  br i1 %28, label %13, label %29, !llvm.loop !5

29:                                               ; preds = %22, %8, %2
  %30 = phi i32 [ 1, %2 ], [ 1, %8 ], [ %23, %22 ]
  ret i32 %30
}

; Function Attrs: argmemonly mustprogress nofree nosync nounwind willreturn
declare void @llvm.lifetime.start.p0i8(i64 immarg, i8* nocapture) #4

; Function Attrs: argmemonly mustprogress nofree nosync nounwind willreturn
declare void @llvm.lifetime.end.p0i8(i64 immarg, i8* nocapture) #4

; Function Attrs: mustprogress norecurse sspstrong uwtable
define dso_local i32 @main() local_unnamed_addr #5 {
  %1 = alloca i32, align 4
  %2 = alloca i32, align 4
  %3 = bitcast i32* %1 to i8*
  call void @llvm.lifetime.start.p0i8(i64 4, i8* nonnull %3) #9
  %4 = bitcast i32* %2 to i8*
  call void @llvm.lifetime.start.p0i8(i64 4, i8* nonnull %4) #9
  %5 = call nonnull align 8 dereferenceable(16) %"class.std::basic_istream"* @_ZNSirsERi(%"class.std::basic_istream"* nonnull align 8 dereferenceable(16) @_ZSt3cin, i32* nonnull align 4 dereferenceable(4) %1)
  %6 = load i32, i32* %1, align 4, !tbaa !7
  %7 = icmp slt i32 %6, 1
  br i1 %7, label %8, label %9

8:                                                ; preds = %40, %0
  call void @llvm.lifetime.end.p0i8(i64 4, i8* nonnull %4) #9
  call void @llvm.lifetime.end.p0i8(i64 4, i8* nonnull %3) #9
  ret i32 0

9:                                                ; preds = %0, %40
  %10 = phi i32 [ %44, %40 ], [ 1, %0 ]
  %11 = call nonnull align 8 dereferenceable(16) %"class.std::basic_istream"* @_ZNSirsERi(%"class.std::basic_istream"* nonnull align 8 dereferenceable(16) @_ZSt3cin, i32* nonnull align 4 dereferenceable(4) %2)
  %12 = load i32, i32* %2, align 4, !tbaa !7
  %13 = call i32 @_Z1fii(i32 %12, i32 2)
  %14 = call nonnull align 8 dereferenceable(8) %"class.std::basic_ostream"* @_ZNSolsEi(%"class.std::basic_ostream"* nonnull align 8 dereferenceable(8) @_ZSt4cout, i32 %13)
  %15 = bitcast %"class.std::basic_ostream"* %14 to i8**
  %16 = load i8*, i8** %15, align 8, !tbaa !11
  %17 = getelementptr i8, i8* %16, i64 -24
  %18 = bitcast i8* %17 to i64*
  %19 = load i64, i64* %18, align 8
  %20 = bitcast %"class.std::basic_ostream"* %14 to i8*
  %21 = add nsw i64 %19, 240
  %22 = getelementptr inbounds i8, i8* %20, i64 %21
  %23 = bitcast i8* %22 to %"class.std::ctype"**
  %24 = load %"class.std::ctype"*, %"class.std::ctype"** %23, align 8, !tbaa !13
  %25 = icmp eq %"class.std::ctype"* %24, null
  br i1 %25, label %26, label %27

26:                                               ; preds = %9
  call void @_ZSt16__throw_bad_castv() #10
  unreachable

27:                                               ; preds = %9
  %28 = getelementptr inbounds %"class.std::ctype", %"class.std::ctype"* %24, i64 0, i32 8
  %29 = load i8, i8* %28, align 8, !tbaa !17
  %30 = icmp eq i8 %29, 0
  br i1 %30, label %34, label %31

31:                                               ; preds = %27
  %32 = getelementptr inbounds %"class.std::ctype", %"class.std::ctype"* %24, i64 0, i32 9, i64 10
  %33 = load i8, i8* %32, align 1, !tbaa !19
  br label %40

34:                                               ; preds = %27
  call void @_ZNKSt5ctypeIcE13_M_widen_initEv(%"class.std::ctype"* nonnull align 8 dereferenceable(570) %24)
  %35 = bitcast %"class.std::ctype"* %24 to i8 (%"class.std::ctype"*, i8)***
  %36 = load i8 (%"class.std::ctype"*, i8)**, i8 (%"class.std::ctype"*, i8)*** %35, align 8, !tbaa !11
  %37 = getelementptr inbounds i8 (%"class.std::ctype"*, i8)*, i8 (%"class.std::ctype"*, i8)** %36, i64 6
  %38 = load i8 (%"class.std::ctype"*, i8)*, i8 (%"class.std::ctype"*, i8)** %37, align 8
  %39 = call signext i8 %38(%"class.std::ctype"* nonnull align 8 dereferenceable(570) %24, i8 signext 10)
  br label %40

40:                                               ; preds = %31, %34
  %41 = phi i8 [ %33, %31 ], [ %39, %34 ]
  %42 = call nonnull align 8 dereferenceable(8) %"class.std::basic_ostream"* @_ZNSo3putEc(%"class.std::basic_ostream"* nonnull align 8 dereferenceable(8) %14, i8 signext %41)
  %43 = call nonnull align 8 dereferenceable(8) %"class.std::basic_ostream"* @_ZNSo5flushEv(%"class.std::basic_ostream"* nonnull align 8 dereferenceable(8) %42)
  %44 = add nuw nsw i32 %10, 1
  %45 = load i32, i32* %1, align 4, !tbaa !7
  %46 = icmp slt i32 %10, %45
  br i1 %46, label %9, label %8, !llvm.loop !20
}

declare nonnull align 8 dereferenceable(16) %"class.std::basic_istream"* @_ZNSirsERi(%"class.std::basic_istream"* nonnull align 8 dereferenceable(16), i32* nonnull align 4 dereferenceable(4)) local_unnamed_addr #0

declare nonnull align 8 dereferenceable(8) %"class.std::basic_ostream"* @_ZNSolsEi(%"class.std::basic_ostream"* nonnull align 8 dereferenceable(8), i32) local_unnamed_addr #0

declare nonnull align 8 dereferenceable(8) %"class.std::basic_ostream"* @_ZNSo3putEc(%"class.std::basic_ostream"* nonnull align 8 dereferenceable(8), i8 signext) local_unnamed_addr #0

declare nonnull align 8 dereferenceable(8) %"class.std::basic_ostream"* @_ZNSo5flushEv(%"class.std::basic_ostream"* nonnull align 8 dereferenceable(8)) local_unnamed_addr #0

; Function Attrs: noreturn
declare void @_ZSt16__throw_bad_castv() local_unnamed_addr #6

declare void @_ZNKSt5ctypeIcE13_M_widen_initEv(%"class.std::ctype"* nonnull align 8 dereferenceable(570)) local_unnamed_addr #0

; Function Attrs: sspstrong uwtable
define internal void @_GLOBAL__sub_I_527.cpp() #7 section ".text.startup" {
  tail call void @_ZNSt8ios_base4InitC1Ev(%"class.std::ios_base::Init"* nonnull align 1 dereferenceable(1) @_ZStL8__ioinit)
  %1 = tail call i32 @__cxa_atexit(void (i8*)* bitcast (void (%"class.std::ios_base::Init"*)* @_ZNSt8ios_base4InitD1Ev to void (i8*)*), i8* getelementptr inbounds (%"class.std::ios_base::Init", %"class.std::ios_base::Init"* @_ZStL8__ioinit, i64 0, i32 0), i8* nonnull @__dso_handle) #9
  ret void
}

declare double @sqrt(double) local_unnamed_addr

; Function Attrs: nofree nosync nounwind readnone speculatable willreturn
declare double @llvm.fabs.f64(double) #8


!llvm.module.flags = !{!0, !1, !2, !3}
!llvm.ident = !{!4}

!0 = !{i32 1, !"wchar_size", i32 4}
!1 = !{i32 7, !"PIC Level", i32 2}
!2 = !{i32 7, !"PIE Level", i32 2}
!3 = !{i32 7, !"uwtable", i32 1}
!4 = !{!"clang version 13.0.0"}
!5 = distinct !{!5, !6}
!6 = !{!"llvm.loop.mustprogress"}
!7 = !{!8, !8, i64 0}
!8 = !{!"int", !9, i64 0}
!9 = !{!"omnipotent char", !10, i64 0}
!10 = !{!"Simple C++ TBAA"}
!11 = !{!12, !12, i64 0}
!12 = !{!"vtable pointer", !10, i64 0}
!13 = !{!14, !15, i64 240}
!14 = !{!"_ZTSSt9basic_iosIcSt11char_traitsIcEE", !15, i64 216, !9, i64 224, !16, i64 225, !15, i64 232, !15, i64 240, !15, i64 248, !15, i64 256}
!15 = !{!"any pointer", !9, i64 0}
!16 = !{!"bool", !9, i64 0}
!17 = !{!18, !9, i64 56}
!18 = !{!"_ZTSSt5ctypeIcE", !15, i64 16, !16, i64 24, !15, i64 32, !15, i64 40, !15, i64 48, !9, i64 56, !9, i64 57, !9, i64 313, !9, i64 569}
!19 = !{!9, !9, i64 0}
!20 = distinct !{!20, !6}
